(dp1
S'KLCH'
p2
(F30.124700000000001
F-93.228300000000004
tp3
sS'KOFK'
p4
(F41.980600000000003
F-97.436899999999994
tp5
sS'KALB'
p6
(F42.746699999999997
F-73.798900000000003
tp7
sS'KHTL'
p8
(F44.351100000000002
F-84.674199999999999
tp9
sS'KDDC'
p10
(F37.772799999999997
F-99.969700000000003
tp11
sS'KMKE'
p12
(F42.954999999999998
F-87.904399999999995
tp13
sS'KATT'
p14
(F30.316700000000001
F-97.7667
tp15
sS'KMAF'
p16
(F31.947800000000001
F-102.2086
tp17
sS'KRST'
p18
(F43.904200000000003
F-92.491699999999994
tp19
sS'KALO'
p20
(F42.554400000000001
F-92.4011
tp21
sS'KOMA'
p22
(F41.310299999999998
F-95.899199999999993
tp23
sS'KPIR'
p24
(F44.381399999999999
F-100.2856
tp25
sS'KORH'
p26
(F42.270600000000002
F-71.873099999999994
tp27
sS'KALS'
p28
(F37.438899999999997
F-105.8614
tp29
sS'KATL'
p30
(F33.6297
F-84.4422
tp31
sS'KILM'
p32
(F34.268300000000004
F-77.906099999999995
tp33
sS'KJKL'
p34
(F37.5914
F-83.314400000000006
tp35
sS'KYNG'
p36
(F41.254399999999997
F-80.673900000000003
tp37
sS'KPDX'
p38
(F45.590800000000002
F-122.6003
tp39
sS'KHTS'
p40
(F38.365000000000002
F-82.555000000000007
tp41
sS'KCHS'
p42
(F32.898899999999998
F-80.040599999999998
tp43
sS'KWMC'
p44
(F40.901899999999998
F-117.80719999999999
tp45
sS'KILG'
p46
(F39.672800000000002
F-75.600800000000007
tp47
sS'KRKS'
p48
(F41.600000000000001
F-109.0667
tp49
sS'KDTW'
p50
(F42.231400000000001
F-83.330799999999996
tp51
sS'KCAR'
p52
(F46.867199999999997
F-68.013300000000001
tp53
sS'KRDU'
p54
(F35.870600000000003
F-78.7864
tp55
sS'KBKE'
p56
(F44.842799999999997
F-117.8086
tp57
sS'KRAP'
p58
(F44.0456
F-103.0539
tp59
sS'KHSV'
p60
(F34.643599999999999
F-86.785600000000002
tp61
sS'KHLN'
p62
(F46.605600000000003
F-111.9636
tp63
sS'KIDA'
p64
(F43.520800000000001
F-112.06610000000001
tp65
sS'KFSD'
p66
(F43.576900000000002
F-96.753600000000006
tp67
sS'KAEX'
p68
(F31.334700000000002
F-92.558599999999998
tp69
sS'KCPR'
p70
(F42.897500000000001
F-106.4731
tp71
sS'KBKW'
p72
(F37.795000000000002
F-81.124700000000004
tp73
sS'KMMV'
p74
(F45.196100000000001
F-123.1322
tp75
sS'KACY'
p76
(F39.464700000000001
F-74.586699999999993
tp77
sS'KCAK'
p78
(F40.918100000000003
F-81.442499999999995
tp79
sS'KBPT'
p80
(F29.951699999999999
F-94.0261
tp81
sS'KSEA'
p82
(F47.444699999999997
F-122.31359999999999
tp83
sS'KLSE'
p84
(F43.878900000000002
F-91.252799999999993
tp85
sS'KCAO'
p86
(F36.448300000000003
F-103.15309999999999
tp87
sS'PHTO'
p88
(F19.722200000000001
F-155.0558
tp89
sS'KSTC'
p90
(F45.544699999999999
F-94.051900000000003
tp91
sS'PHOG'
p92
(F20.892499999999998
F-156.43690000000001
tp93
sS'KTTD'
p94
(F45.551099999999998
F-122.4089
tp95
sS'KHUF'
p96
(F39.441699999999997
F-87.325299999999999
tp97
sS'KAST'
p98
(F46.1569
F-123.88249999999999
tp99
sS'KFAR'
p100
(F46.9253
F-96.811099999999996
tp101
sS'KERI'
p102
(F42.079999999999998
F-80.182500000000005
tp103
sS'KFAT'
p104
(F36.780000000000001
F-119.71939999999999
tp105
sS'KSTL'
p106
(F38.752499999999998
F-90.373599999999996
tp107
sS'KTVR'
p108
(F32.348100000000002
F-91.030000000000001
tp109
sS'PADQ'
p110
(F57.75
F-152.5
tp111
sS'KVRB'
p112
(F27.655000000000001
F-80.414199999999994
tp113
sS'KHSE'
p114
(F35.232199999999999
F-75.622500000000002
tp115
sS'KLUK'
p116
(F39.105800000000002
F-84.415800000000004
tp117
sS'KSTJ'
p118
(F39.768099999999997
F-94.909199999999998
tp119
sS'KCHA'
p120
(F35.033299999999997
F-85.200000000000003
tp121
sS'KCSG'
p122
(F32.516100000000002
F-84.9422
tp123
sS'KLIT'
p124
(F34.726700000000001
F-92.236099999999993
tp125
sS'KSLE'
p126
(F44.907800000000002
F-122.995
tp127
sS'KICT'
p128
(F37.647199999999998
F-97.429400000000001
tp129
sS'KMSN'
p130
(F43.140599999999999
F-89.345299999999995
tp131
sS'KMIA'
p132
(F25.790600000000001
F-80.316400000000002
tp133
sS'KDLH'
p134
(F46.842799999999997
F-92.226100000000002
tp135
sS'TJSJ'
p136
(F18.433299999999999
F-66
tp137
sS'KBHM'
p138
(F33.565600000000003
F-86.745000000000005
tp139
sS'KIND'
p140
(F39.725000000000001
F-86.281899999999993
tp141
sS'KSUX'
p142
(F42.391399999999997
F-96.379199999999997
tp143
sS'KSDB'
p144
(F34.743600000000001
F-118.7244
tp145
sS'KTPA'
p146
(F27.961400000000001
F-82.540300000000002
tp147
sS'KMHS'
p148
(F41.315800000000003
F-122.31610000000001
tp149
sS'KELP'
p150
(F31.8111
F-106.3758
tp151
sS'KTLH'
p152
(F30.3931
F-84.353300000000004
tp153
sS'KELY'
p154
(F39.295000000000002
F-114.84529999999999
tp155
sS'KPDT'
p156
(F45.698300000000003
F-118.8342
tp157
sS'KANJ'
p158
(F46.479399999999998
F-84.357200000000006
tp159
sS'KLAS'
p160
(F36.078899999999997
F-115.1553
tp161
sS'PAJN'
p162
(F58.356099999999998
F-134.5625
tp163
sS'KORD'
p164
(F41.9833
F-87.916700000000006
tp165
sS'KORF'
p166
(F36.903599999999997
F-76.191900000000004
tp167
sS'KANB'
p168
(F33.590600000000002
F-85.847499999999997
tp169
sS'KLAX'
p170
(F33.938099999999999
F-118.38890000000001
tp171
sS'KDBQ'
p172
(F42.397799999999997
F-90.703599999999994
tp173
sS'KCVG'
p174
(F39.043100000000003
F-84.671700000000001
tp175
sS'KHFD'
p176
(F41.734999999999999
F-72.651700000000005
tp177
sS'KPHL'
p178
(F39.868299999999998
F-75.231099999999998
tp179
sS'KLAN'
p180
(F42.780299999999997
F-84.578900000000004
tp181
sS'KMCO'
p182
(F28.417200000000001
F-81.325000000000003
tp183
sS'KMCN'
p184
(F32.687800000000003
F-83.654399999999995
tp185
sS'KSDF'
p186
(F38.177199999999999
F-85.729699999999994
tp187
sS'KAGS'
p188
(F33.364400000000003
F-81.963300000000004
tp189
sS'KSLC'
p190
(F40.778100000000002
F-111.96939999999999
tp191
sS'KGNV'
p192
(F29.6919
F-82.275599999999997
tp193
sS'KDRT'
p194
(F29.374700000000001
F-100.92359999999999
tp195
sS'KUIL'
p196
(F47.9375
F-124.55500000000001
tp197
sS'KAVL'
p198
(F35.431899999999999
F-82.537499999999994
tp199
sS'KROA'
p200
(F37.316899999999997
F-79.974199999999996
tp201
sS'KCOS'
p202
(F38.815800000000003
F-104.71080000000001
tp203
sS'KMKG'
p204
(F43.171100000000003
F-86.236699999999999
tp205
sS'KSCK'
p206
(F37.889699999999998
F-121.2236
tp207
sS'KCON'
p208
(F43.195300000000003
F-71.501099999999994
tp209
sS'KAVP'
p210
(F41.338900000000002
F-75.726699999999994
tp211
sS'KBRL'
p212
(F40.772799999999997
F-91.125299999999996
tp213
sS'KBRO'
p214
(F25.914200000000001
F-97.423100000000005
tp215
sS'KEVV'
p216
(F38.043100000000003
F-87.520300000000006
tp217
sS'KIAD'
p218
(F38.934699999999999
F-77.447500000000005
tp219
sS'KDCA'
p220
(F38.848300000000002
F-77.034199999999998
tp221
sS'KAMA'
p222
(F35.219999999999999
F-101.71720000000001
tp223
sS'KRIC'
p224
(F37.511099999999999
F-77.323300000000003
tp225
sS'PANT'
p226
(F55.033299999999997
F-131.5667
tp227
sS'KBTR'
p228
(F30.537199999999999
F-91.146900000000002
tp229
sS'KAUS'
p230
(F30.179400000000001
F-97.680599999999998
tp231
sS'KLBB'
p232
(F33.667499999999997
F-101.8214
tp233
sS'KLBF'
p234
(F41.121899999999997
F-100.6683
tp235
sS'KPKB'
p236
(F39.350000000000001
F-81.433300000000003
tp237
sS'KHOU'
p238
(F29.637499999999999
F-95.282499999999999
tp239
sS'KTOP'
p240
(F39.072499999999998
F-95.625799999999998
tp241
sS'KSAN'
p242
(F32.733600000000003
F-117.1831
tp243
sS'KUAO'
p244
(F45.248899999999999
F-122.76560000000001
tp245
sS'KBTV'
p246
(F44.4681
F-73.150300000000001
tp247
sS'KVCT'
p248
(F28.862500000000001
F-96.929699999999997
tp249
sS'KINL'
p250
(F48.561900000000001
F-93.397800000000004
tp251
sS'KEUG'
p252
(F44.133299999999998
F-123.2144
tp253
sS'KCYS'
p254
(F41.157800000000002
F-104.8069
tp255
sS'PABR'
p256
(F71.284199999999998
F-156.77809999999999
tp257
sS'KPIT'
p258
(F40.503900000000002
F-80.266400000000004
tp259
sS'KCQT'
p260
(F34.0167
F-118.2833
tp261
sS'KSBN'
p262
(F41.7072
F-86.316400000000002
tp263
sS'KCNK'
p264
(F39.551400000000001
F-97.650599999999997
tp265
sS'KSBA'
p266
(F34.426099999999998
F-119.8436
tp267
sS'PHNL'
p268
(F21.327500000000001
F-157.94309999999999
tp269
sS'KSDM'
p270
(F32.575299999999999
F-116.9931
tp271
sS'KDSM'
p272
(F41.537799999999997
F-93.6661
tp273
sS'KPBI'
p274
(F26.684699999999999
F-80.099400000000003
tp275
sS'KPNS'
p276
(F30.478100000000001
F-87.186899999999994
tp277
sS'KISN'
p278
(F48.173900000000003
F-103.6367
tp279
sS'PAOT'
p280
(F66.885800000000003
F-162.60419999999999
tp281
sS'KLGA'
p282
(F40.779200000000003
F-73.879999999999995
tp283
sS'KLGB'
p284
(F33.811700000000002
F-118.1464
tp285
sS'KSHV'
p286
(F32.446899999999999
F-93.824200000000005
tp287
sS'KLOU'
p288
(F38.223599999999998
F-85.658299999999997
tp289
sS'KMEM'
p290
(F35.061100000000003
F-89.984999999999999
tp291
sS'KSAV'
p292
(F32.118899999999996
F-81.202200000000005
tp293
sS'KPHX'
p294
(F33.434199999999997
F-112.05110000000001
tp295
sS'KMEI'
p296
(F32.338099999999997
F-88.747799999999998
tp297
sS'KBDL'
p298
(F41.938099999999999
F-72.682500000000005
tp299
sS'KBDR'
p300
(F41.158299999999997
F-73.128900000000002
tp301
sS'PHLI'
p302
(F21.983899999999998
F-159.34110000000001
tp303
sS'KRDG'
p304
(F40.3733
F-75.959400000000002
tp305
sS'KOAK'
p306
(F37.7194
F-122.2353
tp307
sS'KRDD'
p308
(F40.515000000000001
F-122.2967
tp309
sS'KOKC'
p310
(F35.388599999999997
F-97.600300000000004
tp311
sS'KAPN'
p312
(F45.0717
F-83.564400000000006
tp313
sS'KGSP'
p314
(F34.883899999999997
F-82.220799999999997
tp315
sS'PAOM'
p316
(F64.511899999999997
F-165.43559999999999
tp317
sS'KTYS'
p318
(F35.818100000000001
F-83.985799999999998
tp319
sS'KFLO'
p320
(F34.187800000000003
F-79.730800000000002
tp321
sS'KAAF'
p322
(F29.73
F-85.030000000000001
tp323
sS'KSJC'
p324
(F37.359200000000001
F-121.9242
tp325
sS'KFWA'
p326
(F40.972799999999999
F-85.205600000000004
tp327
sS'KPWM'
p328
(F43.642200000000003
F-70.304400000000001
tp329
sS'KBOS'
p330
(F42.360599999999998
F-71.010599999999997
tp331
sS'KLWS'
p332
(F46.374699999999997
F-117.01439999999999
tp333
sS'KFLG'
p334
(F35.140300000000003
F-111.6722
tp335
sS'KNYL'
p336
(F32.659399999999998
F-114.59310000000001
tp337
sS'KGLS'
p338
(F29.270299999999999
F-94.864199999999997
tp339
sS'KCEC'
p340
(F41.783299999999997
F-124.2333
tp341
sS'KSJT'
p342
(F31.351400000000002
F-100.4939
tp343
sS'KINW'
p344
(F35.028100000000002
F-110.7208
tp345
sS'KTOL'
p346
(F41.5886
F-83.801400000000001
tp347
sS'KCAE'
p348
(F33.941899999999997
F-81.118099999999998
tp349
sS'KGLD'
p350
(F39.3675
F-101.6931
tp351
sS'KSYR'
p352
(F43.109200000000001
F-76.103300000000004
tp353
sS'KTUP'
p354
(F34.260800000000003
F-88.771100000000004
tp355
sS'KBTM'
p356
(F45.964700000000001
F-112.50060000000001
tp357
sS'KBOI'
p358
(F43.566699999999997
F-116.2406
tp359
sS'KPIH'
p360
(F42.920299999999997
F-112.5711
tp361
sS'KSPS'
p362
(F33.9786
F-98.492800000000003
tp363
sS'KPIA'
p364
(F40.667499999999997
F-89.683899999999994
tp365
sS'KDAB'
p366
(F29.177199999999999
F-81.060000000000002
tp367
sS'KMSO'
p368
(F46.9208
F-114.0925
tp369
sS'KMLS'
p370
(F46.426699999999997
F-105.88249999999999
tp371
sS'KMDT'
p372
(F40.196100000000001
F-76.773099999999999
tp373
sS'KMSP'
p374
(F44.883099999999999
F-93.228899999999996
tp375
sS'PAKN'
p376
(F58.683599999999998
F-156.65389999999999
tp377
sS'KMLI'
p378
(F41.4514
F-90.514700000000005
tp379
sS'KLYH'
p380
(F37.320799999999998
F-79.206699999999998
tp381
sS'KDAY'
p382
(F39.906100000000002
F-84.218599999999995
tp383
sS'KMSY'
p384
(F29.992799999999999
F-90.250799999999998
tp385
sS'PGUM'
p386
(F13.35
F144.80000000000001
tp387
sS'KCRW'
p388
(F38.379399999999997
F-81.591399999999993
tp389
sS'KHIO'
p390
(F45.548099999999998
F-122.95440000000001
tp391
sS'KMLB'
p392
(F28.100300000000001
F-80.635599999999997
tp393
sS'KSPI'
p394
(F39.845300000000002
F-89.683899999999994
tp395
sS'KYKM'
p396
(F46.5642
F-120.53360000000001
tp397
sS'KBUR'
p398
(F34.1997
F-118.3647
tp399
sS'KFSM'
p400
(F35.333599999999997
F-94.364999999999995
tp401
sS'KGRB'
p402
(F44.479399999999998
F-88.136700000000005
tp403
sS'KRNO'
p404
(F39.483899999999998
F-119.7711
tp405
sS'KEWR'
p406
(F40.682499999999997
F-74.169399999999996
tp407
sS'KIPT'
p408
(F41.243299999999998
F-76.921700000000001
tp409
sS'KRBG'
p410
(F43.233899999999998
F-123.3561
tp411
sS'KCLT'
p412
(F35.213299999999997
F-80.948599999999999
tp413
sS'KGTF'
p414
(F47.473300000000002
F-111.3822
tp415
sS'KCDS'
p416
(F34.427500000000002
F-100.2833
tp417
sS'KAHN'
p418
(F33.950800000000001
F-83.328100000000006
tp419
sS'KGFK'
p420
(F47.948099999999997
F-97.182500000000005
tp421
sS'KFMY'
p422
(F26.584199999999999
F-81.862499999999997
tp423
sS'KBUF'
p424
(F42.940800000000003
F-78.735799999999998
tp425
sS'KTRI'
p426
(F36.479700000000001
F-82.398899999999998
tp427
sS'KCLE'
p428
(F41.405000000000001
F-81.852800000000002
tp429
sS'KMGM'
p430
(F32.3003
F-86.406099999999995
tp431
sS'KABI'
p432
(F32.410299999999999
F-99.681700000000006
tp433
sS'KBFL'
p434
(F35.434199999999997
F-119.0544
tp435
sS'KCRP'
p436
(F27.773099999999999
F-97.512799999999999
tp437
sS'KTUS'
p438
(F32.131399999999999
F-110.95529999999999
tp439
sS'KJAN'
p440
(F32.319699999999997
F-90.077500000000001
tp441
sS'KPAH'
p442
(F37.056399999999996
F-88.773899999999998
tp443
sS'KBFF'
p444
(F41.866900000000001
F-103.58580000000001
tp445
sS'KHVR'
p446
(F48.5428
F-109.7633
tp447
sS'KPUB'
p448
(F38.289999999999999
F-104.4983
tp449
sS'KTUL'
p450
(F36.197499999999998
F-95.886399999999995
tp451
sS'KLEX'
p452
(F38.040799999999997
F-84.605800000000002
tp453
sS'KJAX'
p454
(F30.494399999999999
F-81.693299999999994
tp455
sS'KRFD'
p456
(F42.192799999999998
F-89.093299999999999
tp457
sS'KBNA'
p458
(F36.118899999999996
F-86.6892
tp459
sS'KRIW'
p460
(F43.061900000000001
F-108.4464
tp461
sS'KOLM'
p462
(F46.973300000000002
F-122.9033
tp463
sS'KMOB'
p464
(F30.688300000000002
F-88.245599999999996
tp465
sS'KBIL'
p466
(F45.807699999999997
F-108.5429
tp467
sS'PACD'
p468
(F55.220799999999997
F-162.7278
tp469
sS'PAFA'
p470
(F64.803899999999999
F-147.87610000000001
tp471
sS'PAMC'
p472
(F62.966700000000003
F-155.61670000000001
tp473
sS'KSGF'
p474
(F37.239699999999999
F-93.389700000000005
tp475
sS'KSMX'
p476
(F34.8994
F-120.4486
tp477
sS'KDEN'
p478
(F39.832799999999999
F-104.6575
tp479
sS'KBIS'
p480
(F46.782499999999999
F-100.7572
tp481
sS'KGJT'
p482
(F39.133899999999997
F-108.5386
tp483
sS'KACT'
p484
(F31.6172
F-97.227800000000002
tp485
sS'KNYC'
p486
(F40.783299999999997
F-73.966700000000003
tp487
sS'PASN'
p488
(F57.149999999999999
F-170.2167
tp489
sS'KEKO'
p490
(F40.8264
F-115.78749999999999
tp491
sS'KEKN'
p492
(F38.885300000000001
F-79.852800000000002
tp493
sS'KSAC'
p494
(F38.506900000000002
F-121.495
tp495
sS'KBGM'
p496
(F42.207799999999999
F-75.981399999999994
tp497
sS'KROC'
p498
(F43.116700000000002
F-77.676699999999997
tp499
sS'KMFD'
p500
(F40.820300000000003
F-82.517799999999994
tp501
sS'KFNT'
p502
(F42.966700000000003
F-83.749399999999994
tp503
sS'KGGW'
p504
(F48.213900000000002
F-106.62139999999999
tp505
sS'KMCI'
p506
(F39.297199999999997
F-94.730599999999995
tp507
sS'KEYW'
p508
(F24.553599999999999
F-81.753600000000006
tp509
sS'KCMH'
p510
(F39.994999999999997
F-82.876400000000004
tp511
sS'KPVD'
p512
(F41.721899999999998
F-71.432500000000005
tp513
sS'PANC'
p514
(F61.169699999999999
F-150.02610000000001
tp515
sS'KROW'
p516
(F33.308100000000003
F-104.5078
tp517
sS'KLNK'
p518
(F40.831099999999999
F-96.764399999999995
tp519
sS'KSAT'
p520
(F29.532800000000002
F-98.4636
tp521
sS'KHON'
p522
(F44.388100000000001
F-98.228300000000004
tp523
sS'KEAT'
p524
(F47.397799999999997
F-120.20140000000001
tp525
sS'KVTN'
p526
(F42.858600000000003
F-100.5514
tp527
sS'KJFK'
p528
(F40.638599999999997
F-73.762200000000007
tp529
sS'KLND'
p530
(F42.814700000000002
F-108.7281
tp531
sS'PAYA'
p532
(F59.5167
F-139.66669999999999
tp533
sS'KEYE'
p534
(F39.825000000000003
F-86.2958
tp535
sS'KCUB'
p536
(F33.970799999999997
F-80.994399999999999
tp537
sS'KWAL'
p538
(F37.940600000000003
F-75.463099999999997
tp539
sS'PABE'
p540
(F60.783299999999997
F-161.83330000000001
tp541
sS'KGEG'
p542
(F47.621400000000001
F-117.5278
tp543
sS'KABE'
p544
(F40.650799999999997
F-75.449200000000005
tp545
sS'KDFW'
p546
(F32.896900000000002
F-97.021900000000002
tp547
sS'KDNL'
p548
(F33.466900000000003
F-82.038600000000002
tp549
sS'KGRI'
p550
(F40.958300000000001
F-98.3125
tp551
sS'KABR'
p552
(F45.443300000000001
F-98.4131
tp553
sS'KGSO'
p554
(F36.097499999999997
F-79.943600000000004
tp555
sS'KSFF'
p556
(F47.685600000000001
F-117.3203
tp557
sS'KABQ'
p558
(F35.041699999999999
F-106.6147
tp559
sS'KGRR'
p560
(F42.882199999999997
F-85.523099999999999
tp561
sS'KBWI'
p562
(F39.166699999999999
F-76.683300000000003
tp563
sS'KSFO'
p564
(F37.619700000000002
F-122.3647
tp565
sS'KCOU'
p566
(F38.816899999999997
F-92.218299999999999
tp567
sS'KBNO'
p568
(F43.594999999999999
F-118.9564
tp569
sS'KISP'
p570
(F40.793900000000001
F-73.101699999999994
tp571
s.